target datalayout = "e-m:e-p270:32:32-p271:32:32-p272:64:64-i64:64-i128:128-f80:128-n8:16:32:64-S128"
target triple = "x86_64-pc-linux-gnu"

%struct.RBasic = type { i64, i64 }
%struct.branch_coverage_result_builder = type { i32, i64, i64, i64 }
%struct.RArray = type { %struct.RBasic, %union.anon.12 }
%union.anon.12 = type { %struct.anon.13 }
%struct.anon.13 = type { i64, %union.anon.14, ptr }
%union.anon.14 = type { i64 }

; Function Attrs: inlinehint nounwind sspstrong willreturn memory(read) uwtable
define internal i64 @RB_FL_TEST_RAW(i64 noundef %0, i64 noundef %1) #5 {
  %3 = alloca i64, align 8
  %4 = alloca i64, align 8
  store i64 %0, ptr %3, align 8, !tbaa !6
  store i64 %1, ptr %4, align 8, !tbaa !6
  %5 = load i64, ptr %3, align 8, !tbaa !6
  %6 = inttoptr i64 %5 to ptr
  %7 = getelementptr inbounds nuw %struct.RBasic, ptr %6, i32 0, i32 0
  %8 = load i64, ptr %7, align 8, !tbaa !29
  %9 = load i64, ptr %4, align 8, !tbaa !6
  %10 = and i64 %8, %9
  ret i64 %10
}

; Function Attrs: inlinehint nounwind sspstrong willreturn memory(read) uwtable
define internal zeroext i1 @RB_FL_ANY_RAW(i64 noundef %0, i64 noundef %1) #5 {
  %3 = alloca i64, align 8
  %4 = alloca i64, align 8
  store i64 %0, ptr %3, align 8, !tbaa !6
  store i64 %1, ptr %4, align 8, !tbaa !6
  %5 = load i64, ptr %3, align 8, !tbaa !6
  %6 = load i64, ptr %4, align 8, !tbaa !6
  %7 = call i64 @RB_FL_TEST_RAW(i64 noundef %5, i64 noundef %6) #20
  %8 = icmp ne i64 %7, 0
  ret i1 %8
}

; Function Attrs: inlinehint nounwind sspstrong willreturn memory(read) uwtable
define internal ptr @rb_array_const_ptr(i64 noundef %0) #5 {
  %2 = alloca ptr, align 8
  %3 = alloca i64, align 8
  store i64 %0, ptr %3, align 8, !tbaa !6
  %4 = load i64, ptr %3, align 8, !tbaa !6
  %5 = call zeroext i1 @RB_FL_ANY_RAW(i64 noundef %4, i64 noundef 8192) #20
  br i1 %5, label %6, label %11

6:                                                ; preds = %1
  %7 = load i64, ptr %3, align 8, !tbaa !6
  %8 = inttoptr i64 %7 to ptr
  %9 = getelementptr inbounds nuw %struct.RArray, ptr %8, i32 0, i32 1
  %10 = getelementptr inbounds [1 x i64], ptr %9, i64 0, i64 0
  store ptr %10, ptr %2, align 8
  br label %17

11:                                               ; preds = %1
  %12 = load i64, ptr %3, align 8, !tbaa !6
  %13 = inttoptr i64 %12 to ptr
  %14 = getelementptr inbounds nuw %struct.RArray, ptr %13, i32 0, i32 1
  %15 = getelementptr inbounds nuw %struct.anon.13, ptr %14, i32 0, i32 2
  %16 = load ptr, ptr %15, align 8, !tbaa !28
  store ptr %16, ptr %2, align 8
  br label %17

17:                                               ; preds = %11, %6
  %18 = load ptr, ptr %2, align 8
  ret ptr %18
}

; Function Attrs: inlinehint nounwind sspstrong willreturn memory(none) uwtable
define internal i64 @RB_INT2FIX(i64 noundef %0) #8 {
  %2 = alloca i64, align 8
  %3 = alloca i64, align 8
  %4 = alloca i64, align 8
  %5 = alloca i64, align 8
  %6 = alloca i64, align 8
  %7 = alloca i64, align 8
  store i64 %0, ptr %2, align 8, !tbaa !6
  call void @llvm.lifetime.start.p0(i64 8, ptr %3) #16
  %8 = load i64, ptr %2, align 8, !tbaa !6
  store i64 %8, ptr %3, align 8, !tbaa !6
  call void @llvm.lifetime.start.p0(i64 8, ptr %4) #16
  %9 = load i64, ptr %3, align 8, !tbaa !6
  %10 = shl i64 %9, 1
  %11 = add i64 %10, 1
  store i64 %11, ptr %4, align 8, !tbaa !6
  call void @llvm.lifetime.start.p0(i64 8, ptr %5) #16
  %12 = load i64, ptr %4, align 8, !tbaa !6
  store i64 %12, ptr %5, align 8, !tbaa !6
  call void @llvm.lifetime.start.p0(i64 8, ptr %6) #16
  %13 = load i64, ptr %5, align 8, !tbaa !6
  store i64 %13, ptr %6, align 8, !tbaa !6
  call void @llvm.lifetime.start.p0(i64 8, ptr %7) #16
  %14 = load i64, ptr %6, align 8, !tbaa !6
  store i64 %14, ptr %7, align 8, !tbaa !6
  %15 = load i64, ptr %7, align 8, !tbaa !6
  call void @llvm.lifetime.end.p0(i64 8, ptr %7) #16
  call void @llvm.lifetime.end.p0(i64 8, ptr %6) #16
  call void @llvm.lifetime.end.p0(i64 8, ptr %5) #16
  call void @llvm.lifetime.end.p0(i64 8, ptr %4) #16
  call void @llvm.lifetime.end.p0(i64 8, ptr %3) #16
  ret i64 %15
}

; Function Attrs: inlinehint nounwind sspstrong willreturn memory(read) uwtable
define internal i64 @RARRAY_AREF(i64 noundef %0, i64 noundef %1) #5 {
  %3 = alloca i64, align 8
  %4 = alloca i64, align 8
  %5 = alloca i64, align 8
  store i64 %0, ptr %3, align 8, !tbaa !6
  store i64 %1, ptr %4, align 8, !tbaa !6
  call void @llvm.lifetime.start.p0(i64 8, ptr %5) #16
  %6 = load i64, ptr %3, align 8, !tbaa !6
  %7 = call ptr @rb_array_const_ptr(i64 noundef %6) #20
  %8 = load i64, ptr %4, align 8, !tbaa !6
  %9 = getelementptr inbounds i64, ptr %7, i64 %8
  %10 = load i64, ptr %9, align 8, !tbaa !6
  store i64 %10, ptr %5, align 8, !tbaa !6
  %11 = load i64, ptr %5, align 8, !tbaa !6
  call void @llvm.lifetime.end.p0(i64 8, ptr %5) #16
  ret i64 %11
}

; Function Attrs: nounwind sspstrong uwtable
define internal i32 @branch_coverage_i(i64 noundef %0, i64 noundef %1, i64 noundef %2) #0 {
  %4 = alloca i64, align 8
  %5 = alloca i64, align 8
  %6 = alloca i64, align 8
  %7 = alloca ptr, align 8
  %8 = alloca i64, align 8
  %9 = alloca i64, align 8
  %10 = alloca i64, align 8
  %11 = alloca i64, align 8
  %12 = alloca i64, align 8
  %13 = alloca i64, align 8
  %14 = alloca i64, align 8
  store i64 %0, ptr %4, align 8, !tbaa !6
  store i64 %1, ptr %5, align 8, !tbaa !6
  store i64 %2, ptr %6, align 8, !tbaa !6
  call void @llvm.lifetime.start.p0(i64 8, ptr %7) #16
  %15 = load i64, ptr %6, align 8, !tbaa !6
  %16 = inttoptr i64 %15 to ptr
  store ptr %16, ptr %7, align 8, !tbaa !45
  call void @llvm.lifetime.start.p0(i64 8, ptr %8) #16
  %17 = load i64, ptr %5, align 8, !tbaa !6
  %18 = call i64 @RARRAY_AREF(i64 noundef %17, i64 noundef 0) #20
  store i64 %18, ptr %8, align 8, !tbaa !6
  call void @llvm.lifetime.start.p0(i64 8, ptr %9) #16
  %19 = load i64, ptr %5, align 8, !tbaa !6
  %20 = call i64 @RARRAY_AREF(i64 noundef %19, i64 noundef 1) #20
  store i64 %20, ptr %9, align 8, !tbaa !6
  call void @llvm.lifetime.start.p0(i64 8, ptr %10) #16
  %21 = load i64, ptr %5, align 8, !tbaa !6
  %22 = call i64 @RARRAY_AREF(i64 noundef %21, i64 noundef 2) #20
  store i64 %22, ptr %10, align 8, !tbaa !6
  call void @llvm.lifetime.start.p0(i64 8, ptr %11) #16
  %23 = load i64, ptr %5, align 8, !tbaa !6
  %24 = call i64 @RARRAY_AREF(i64 noundef %23, i64 noundef 3) #20
  store i64 %24, ptr %11, align 8, !tbaa !6
  call void @llvm.lifetime.start.p0(i64 8, ptr %12) #16
  %25 = load i64, ptr %5, align 8, !tbaa !6
  %26 = call i64 @RARRAY_AREF(i64 noundef %25, i64 noundef 4) #20
  store i64 %26, ptr %12, align 8, !tbaa !6
  call void @llvm.lifetime.start.p0(i64 8, ptr %13) #16
  %27 = load i64, ptr %5, align 8, !tbaa !6
  %28 = call i64 @RARRAY_AREF(i64 noundef %27, i64 noundef 5) #20
  store i64 %28, ptr %13, align 8, !tbaa !6
  call void @llvm.lifetime.start.p0(i64 8, ptr %14) #16
  %29 = call i64 @rb_hash_new()
  store i64 %29, ptr %14, align 8, !tbaa !6
  %30 = load ptr, ptr %7, align 8, !tbaa !45
  %31 = getelementptr inbounds nuw %struct.branch_coverage_result_builder, ptr %30, i32 0, i32 1
  %32 = load i64, ptr %31, align 8, !tbaa !43
  %33 = load i64, ptr %8, align 8, !tbaa !6
  %34 = load ptr, ptr %7, align 8, !tbaa !45
  %35 = getelementptr inbounds nuw %struct.branch_coverage_result_builder, ptr %34, i32 0, i32 0
  %36 = load i32, ptr %35, align 8, !tbaa !41
  %37 = add nsw i32 %36, 1
  store i32 %37, ptr %35, align 8, !tbaa !41
  %38 = sext i32 %36 to i64
  %39 = call i64 @RB_INT2FIX(i64 noundef %38) #18
  %40 = load i64, ptr %9, align 8, !tbaa !6
  %41 = load i64, ptr %10, align 8, !tbaa !6
  %42 = load i64, ptr %11, align 8, !tbaa !6
  %43 = load i64, ptr %12, align 8, !tbaa !6
  %44 = call i64 (i64, ...) @rb_ary_new_from_args(i64 noundef 6, i64 noundef %33, i64 noundef %39, i64 noundef %40, i64 noundef %41, i64 noundef %42, i64 noundef %43)
  %45 = load i64, ptr %14, align 8, !tbaa !6
  %46 = call i64 @rb_hash_aset(i64 noundef %32, i64 noundef %44, i64 noundef %45)
  %47 = load i64, ptr %14, align 8, !tbaa !6
  %48 = load ptr, ptr %7, align 8, !tbaa !45
  %49 = getelementptr inbounds nuw %struct.branch_coverage_result_builder, ptr %48, i32 0, i32 2
  store i64 %47, ptr %49, align 8, !tbaa !47
  %50 = load i64, ptr %13, align 8, !tbaa !6
  %51 = load i64, ptr %6, align 8, !tbaa !6
  call void @rb_hash_foreach(i64 noundef %50, ptr noundef @branch_coverage_ii, i64 noundef %51)
  call void @llvm.lifetime.end.p0(i64 8, ptr %14) #16
  call void @llvm.lifetime.end.p0(i64 8, ptr %13) #16
  call void @llvm.lifetime.end.p0(i64 8, ptr %12) #16
  call void @llvm.lifetime.end.p0(i64 8, ptr %11) #16
  call void @llvm.lifetime.end.p0(i64 8, ptr %10) #16
  call void @llvm.lifetime.end.p0(i64 8, ptr %9) #16
  call void @llvm.lifetime.end.p0(i64 8, ptr %8) #16
  call void @llvm.lifetime.end.p0(i64 8, ptr %7) #16
  ret i32 0
}