; Function Attrs: nounwind sspstrong uwtable
define internal noundef i32 @branch_coverage_i(i64 %0, i64 noundef %1, i64 noundef %2) #0 {
  %4 = inttoptr i64 %1 to ptr
  %5 = load i64, ptr %4, align 8, !tbaa !14
  %6 = and i64 %5, 8192
  %.not.i.i = icmp eq i64 %6, 0
  br i1 %.not.i.i, label %13, label %7

7:                                                ; preds = %3
  %8 = getelementptr inbounds nuw i8, ptr %4, i64 16
  %9 = getelementptr inbounds nuw i8, ptr %4, i64 24
  %10 = getelementptr inbounds nuw i8, ptr %4, i64 32
  %11 = getelementptr inbounds nuw i8, ptr %4, i64 40
  %12 = getelementptr inbounds nuw i8, ptr %4, i64 48
  br label %RARRAY_AREF.exit32

13:                                               ; preds = %3
  %14 = getelementptr inbounds nuw i8, ptr %4, i64 32
  %15 = load ptr, ptr %14, align 8, !tbaa !16
  %16 = getelementptr inbounds nuw i8, ptr %15, i64 8
  %17 = getelementptr inbounds nuw i8, ptr %15, i64 16
  %18 = getelementptr inbounds nuw i8, ptr %15, i64 24
  %19 = getelementptr inbounds nuw i8, ptr %15, i64 32
  br label %RARRAY_AREF.exit32

RARRAY_AREF.exit32:                               ; preds = %7, %13
  %.in = phi ptr [ %12, %7 ], [ %19, %13 ]
  %.in38 = phi ptr [ %10, %7 ], [ %17, %13 ]
  %.in39 = phi ptr [ %8, %7 ], [ %15, %13 ]
  %.in40 = phi ptr [ %9, %7 ], [ %16, %13 ]
  %.in41 = phi ptr [ %11, %7 ], [ %18, %13 ]
  %20 = load i64, ptr %.in41, align 8, !tbaa !10
  %21 = load i64, ptr %.in40, align 8, !tbaa !10
  %22 = load i64, ptr %.in39, align 8, !tbaa !10
  %23 = load i64, ptr %.in38, align 8, !tbaa !10
  %24 = load i64, ptr %.in, align 8, !tbaa !10
  %25 = inttoptr i64 %2 to ptr
  %26 = getelementptr inbounds nuw i8, ptr %.in39, i64 40
  %27 = load i64, ptr %26, align 8, !tbaa !10
  %28 = tail call i64 @rb_hash_new() #9
  %29 = getelementptr inbounds nuw i8, ptr %25, i64 8
  %30 = load i64, ptr %29, align 8, !tbaa !19
  %31 = load i32, ptr %25, align 8, !tbaa !17
  %32 = add nsw i32 %31, 1
  store i32 %32, ptr %25, align 8, !tbaa !17
  %33 = sext i32 %31 to i64
  %34 = shl nsw i64 %33, 1
  %35 = or disjoint i64 %34, 1
  %36 = tail call i64 (i64, ...) @rb_ary_new_from_args(i64 noundef 6, i64 noundef %22, i64 noundef %35, i64 noundef %21, i64 noundef %23, i64 noundef %20, i64 noundef %24) #9
  %37 = tail call i64 @rb_hash_aset(i64 noundef %30, i64 noundef %36, i64 noundef %28) #9
  %38 = getelementptr inbounds nuw i8, ptr %25, i64 16
  store i64 %28, ptr %38, align 8, !tbaa !29
  tail call void @rb_hash_foreach(i64 noundef %27, ptr noundef nonnull @branch_coverage_ii, i64 noundef %2) #9
  ret i32 0
}